(lp0
(i__main__
Assignment
p1
(dp2
S'length'
p3
Vhank
p4
sS'name'
p5
Vbobbert
p6
sS'due'
p7
Vsmith
p8
sba(i__main__
Assignment
p9
(dp10
g3
Vhankds
p11
sg5
Vbobbert
p12
sg7
Vsmith
p13
sba(i__main__
Assignment
p14
(dp15
g3
Vhank
p16
sg5
Vbobbsdsadert
p17
sg7
Vsmith
p18
sba(i__main__
Assignment
p19
(dp20
g3
Vtime_to_complete
p21
sg5
Vassignment_name
p22
sg7
Vdate_due
p23
sba.